Certificate:
    Data:
        Version: 3 (0x2)
        Serial Number: 2 (0x2)
        Signature Algorithm: ecdsa-with-SHA256
        Issuer: O=Example CA
        Validity
            Not Before: Aug 13 13:02:25 2020 GMT
            Not After : Aug 13 13:02:25 2025 GMT
        Subject: CN=localhost
        Subject Public Key Info:
            Public Key Algorithm: id-ecPublicKey
                Public-Key: (256 bit)
                pub:
                    04:1b:30:00:c2:ff:cd:d5:37:13:24:50:ba:58:8f:
                    b7:cc:ec:b8:da:92:f4:d1:a7:4f:e6:1d:f0:94:d3:
                    68:50:26:c8:e7:10:58:3c:7e:74:78:fa:02:f6:e1:
                    22:64:da:37:29:e0:82:9a:29:05:a8:64:25:26:23:
                    26:4b:fe:ec:ea
                ASN1 OID: prime256v1
                NIST CURVE: P-256
        X509v3 extensions:
            X509v3 Key Usage: critical
                Digital Signature, Key Encipherment, Key Agreement
            X509v3 Extended Key Usage: 
                TLS Web Server Authentication
            X509v3 Subject Key Identifier: 
                BD:1A:70:34:7D:A1:15:6C:B8:FC:B0:56:6D:AD:4D:0A:B2:E5:C7:82
            X509v3 Authority Key Identifier: 
                keyid:65:70:FA:10:EB:62:97:BD:85:FF:6C:04:F0:68:5D:22:F1:E9:83:67
                DirName:/O=Example CA
                serial:01

    Signature Algorithm: ecdsa-with-SHA256
         30:45:02:20:64:8a:57:52:cc:8d:db:8c:a2:26:fc:68:42:e1:
         e6:76:9c:68:04:23:3a:ba:84:4f:8f:d2:74:17:ee:82:bb:ba:
         02:21:00:b8:56:9b:fd:ec:2f:65:b4:94:a1:a7:64:b0:90:39:
         4c:2f:37:df:b0:9c:f9:1e:5e:71:1d:d2:89:1c:41:8f:fb
-----BEGIN CERTIFICATE-----
MIIBnzCCAUWgAwIBAgIBAjAKBggqhkjOPQQDAjAVMRMwEQYDVQQKDApFeGFtcGxl
IENBMB4XDTIwMDgxMzEzMDIyNVoXDTI1MDgxMzEzMDIyNVowFDESMBAGA1UEAwwJ
bG9jYWxob3N0MFkwEwYHKoZIzj0CAQYIKoZIzj0DAQcDQgAEGzAAwv/N1TcTJFC6
WI+3zOy42pL00adP5h3wlNNoUCbI5xBYPH50ePoC9uEiZNo3KeCCmikFqGQlJiMm
S/7s6qOBhjCBgzAOBgNVHQ8BAf8EBAMCA6gwEwYDVR0lBAwwCgYIKwYBBQUHAwEw
HQYDVR0OBBYEFL0acDR9oRVsuPywVm2tTQqy5ceCMD0GA1UdIwQ2MDSAFGVw+hDr
Ype9hf9sBPBoXSLx6YNnoRmkFzAVMRMwEQYDVQQKDApFeGFtcGxlIENBggEBMAoG
CCqGSM49BAMCA0gAMEUCIGSKV1LMjduMoib8aELh5nacaAQjOrqET4/SdBfugru6
AiEAuFab/ewvZbSUoadksJA5TC8337Cc+R5ecR3SiRxBj/s=
-----END CERTIFICATE-----
